; Function Attrs: mustprogress uwtable
define internal noundef nonnull ptr @"_ZNSt17_Function_handlerIFPN7xgboost11ObjFunctionEvENS0_3obj4$_10EE9_M_invokeERKSt9_Any_data"(ptr nocapture nonnull readnone align 8 %0) #4 align 2 personality ptr @__gxx_personality_v0 {
  %2 = tail call noalias noundef nonnull dereferenceable(64) ptr @_Znwm(i64 noundef 64) #33
  tail call void @llvm.memset.p0.i64(ptr noundef nonnull align 16 dereferenceable(64) %2, i8 0, i64 64, i1 false)
  store ptr getelementptr inbounds inrange(-16, 120) (i8, ptr @_ZTVN7xgboost3obj17TweedieRegressionE, i64 16), ptr %2, align 8
  %3 = getelementptr inbounds i8, ptr %2, i64 16
  tail call void @_ZNSt7__cxx1112basic_stringIcSt11char_traitsIcESaIcEEC1Ev(ptr noundef nonnull align 8 dereferenceable(32) %3) #15
  %4 = getelementptr inbounds i8, ptr %2, i64 48
  store i8 0, ptr %4, align 1
  %5 = getelementptr inbounds i8, ptr %2, i64 56
  invoke void @_ZN7xgboost16HostDeviceVectorIiEC1EmiNS_9DeviceOrdE(ptr noundef nonnull align 8 dereferenceable(8) %5, i64 noundef 0, i32 noundef 0, i32 -65536)
          to label %"_ZSt10__invoke_rIPN7xgboost11ObjFunctionERNS0_3obj4$_10EJEENSt9enable_ifIX16is_invocable_r_vIT_T0_DpT1_EES7_E4typeEOS8_DpOS9_.exit" unwind label %.body.i.i.i

.body.i.i.i:                                      ; preds = %1
  %6 = landingpad { ptr, i32 }
          cleanup
  tail call void @_ZNSt7__cxx1112basic_stringIcSt11char_traitsIcESaIcEED1Ev(ptr noundef nonnull align 8 dereferenceable(32) %3) #15
  tail call void @_ZdlPvm(ptr noundef nonnull %2, i64 noundef 64) #32
  resume { ptr, i32 } %6

"_ZSt10__invoke_rIPN7xgboost11ObjFunctionERNS0_3obj4$_10EJEENSt9enable_ifIX16is_invocable_r_vIT_T0_DpT1_EES7_E4typeEOS8_DpOS9_.exit": ; preds = %1
  ret ptr %2
}